target datalayout = "e-m:e-p270:32:32-p271:32:32-p272:64:64-i64:64-i128:128-f80:128-n8:16:32:64-S128"
target triple = "x86_64-pc-linux-gnu"

; Function Attrs: mustprogress nounwind uwtable
define void @_Z18lodepng_chunk_typePcPKh(ptr noundef %0, ptr noundef %1) #3 {
  %3 = alloca ptr, align 8
  %4 = alloca ptr, align 8
  %5 = alloca i32, align 4
  store ptr %0, ptr %3, align 8, !tbaa !11
  store ptr %1, ptr %4, align 8, !tbaa !11
  call void @llvm.lifetime.start.p0(i64 4, ptr %5) #17
  store i32 0, ptr %5, align 4, !tbaa !15
  br label %6

6:                                                ; preds = %20, %2
  %7 = load i32, ptr %5, align 4, !tbaa !15
  %8 = icmp ne i32 %7, 4
  br i1 %8, label %9, label %23

9:                                                ; preds = %6
  %10 = load ptr, ptr %4, align 8, !tbaa !11
  %11 = load i32, ptr %5, align 4, !tbaa !15
  %12 = add i32 4, %11
  %13 = zext i32 %12 to i64
  %14 = getelementptr inbounds nuw i8, ptr %10, i64 %13
  %15 = load i8, ptr %14, align 1, !tbaa !45
  %16 = load ptr, ptr %3, align 8, !tbaa !11
  %17 = load i32, ptr %5, align 4, !tbaa !15
  %18 = zext i32 %17 to i64
  %19 = getelementptr inbounds nuw i8, ptr %16, i64 %18
  store i8 %15, ptr %19, align 1, !tbaa !45
  br label %20

20:                                               ; preds = %9
  %21 = load i32, ptr %5, align 4, !tbaa !15
  %22 = add i32 %21, 1
  store i32 %22, ptr %5, align 4, !tbaa !15
  br label %6, !llvm.loop !94

23:                                               ; preds = %6
  %24 = load ptr, ptr %3, align 8, !tbaa !11
  %25 = getelementptr inbounds i8, ptr %24, i64 4
  store i8 0, ptr %25, align 1, !tbaa !45
  call void @llvm.lifetime.end.p0(i64 4, ptr %5) #17
  ret void
}