; Function Attrs: mustprogress nofree norecurse nosync nounwind memory(argmem: readwrite) uwtable
define void @_Z18lodepng_chunk_typePcPKh(ptr noundef writeonly captures(none) %0, ptr noundef readonly captures(none) %1) local_unnamed_addr #8 {
  %invariant.gep = getelementptr inbounds nuw i8, ptr %1, i64 4
  br label %3

3:                                                ; preds = %2, %3
  %indvars.iv = phi i64 [ 0, %2 ], [ %indvars.iv.next, %3 ]
  %gep = getelementptr inbounds nuw i8, ptr %invariant.gep, i64 %indvars.iv
  %4 = load i8, ptr %gep, align 1, !tbaa !18
  %5 = getelementptr inbounds nuw i8, ptr %0, i64 %indvars.iv
  store i8 %4, ptr %5, align 1, !tbaa !18
  %indvars.iv.next = add nuw nsw i64 %indvars.iv, 1
  %.not = icmp eq i64 %indvars.iv.next, 4
  br i1 %.not, label %6, label %3, !llvm.loop !169

6:                                                ; preds = %3
  %7 = getelementptr inbounds nuw i8, ptr %0, i64 4
  store i8 0, ptr %7, align 1, !tbaa !18
  ret void
}